target datalayout = "e-m:e-p270:32:32-p271:32:32-p272:64:64-i64:64-i128:128-f80:128-n8:16:32:64-S128"
target triple = "x86_64-pc-linux-gnu"

%struct.ArrayAnalyzeExtraData = type { i32, i32, i32, i8, i16, i8, ptr, ptr, ptr, ptr }

@array_extra_data = internal global ptr null, align 8

; Function Attrs: inlinehint nounwind uwtable
define internal i32 @DatumGetUInt32(i64 noundef %0) #2 {
  %2 = alloca i64, align 8
  store i64 %0, ptr %2, align 8
  %3 = load i64, ptr %2, align 8
  %4 = trunc i64 %3 to i32
  ret i32 %4
}

; Function Attrs: nounwind uwtable
define internal i32 @element_hash(ptr noundef %0, i64 noundef %1) #0 {
  %3 = alloca ptr, align 8
  %4 = alloca i64, align 8
  %5 = alloca i64, align 8
  %6 = alloca i64, align 8
  store ptr %0, ptr %3, align 8
  store i64 %1, ptr %4, align 8
  call void @llvm.lifetime.start.p0(i64 8, ptr %5) #5
  %7 = load ptr, ptr %3, align 8
  %8 = load i64, ptr %7, align 8
  store i64 %8, ptr %5, align 8
  call void @llvm.lifetime.start.p0(i64 8, ptr %6) #5
  %9 = load ptr, ptr @array_extra_data, align 8
  %10 = getelementptr inbounds nuw %struct.ArrayAnalyzeExtraData, ptr %9, i32 0, i32 7
  %11 = load ptr, ptr %10, align 8
  %12 = load ptr, ptr @array_extra_data, align 8
  %13 = getelementptr inbounds nuw %struct.ArrayAnalyzeExtraData, ptr %12, i32 0, i32 2
  %14 = load i32, ptr %13, align 8
  %15 = load i64, ptr %5, align 8
  %16 = call i64 @FunctionCall1Coll(ptr noundef %11, i32 noundef %14, i64 noundef %15)
  store i64 %16, ptr %6, align 8
  %17 = load i64, ptr %6, align 8
  %18 = call i32 @DatumGetUInt32(i64 noundef %17)
  call void @llvm.lifetime.end.p0(i64 8, ptr %6) #5
  call void @llvm.lifetime.end.p0(i64 8, ptr %5) #5
  ret i32 %18
}